Certificate:
    Data:
        Version: 3 (0x2)
        Serial Number: 5 (0x5)
        Signature Algorithm: sha1WithRSAEncryption
        Issuer: C=CN, ST=Beijing, L=Beijing, O=Sunshine-Library, CN=sunshine-library/emailAddress=bowen@sunshine-library.org
        Validity
            Not Before: Nov  4 19:44:51 2012 GMT
            Not After : Nov  2 19:44:51 2022 GMT
        Subject: C=CN, ST=Beijing, L=Beijing, O=Sunshine-Library, CN=debian-hjzx/emailAddress=bowen@sunshine-library.org
        Subject Public Key Info:
            Public Key Algorithm: rsaEncryption
            RSA Public Key: (1024 bit)
                Modulus (1024 bit):
                    00:a6:6c:f3:69:25:02:b7:99:9f:1b:7e:dd:81:7b:
                    25:26:d1:08:f0:04:d6:18:1c:37:c4:0c:7d:31:99:
                    74:6b:4f:71:52:75:e5:4e:df:51:82:bc:91:3e:1f:
                    6c:d9:39:88:f5:00:58:08:a7:a6:c8:0a:7a:c9:37:
                    20:ed:17:b7:40:ca:a6:8a:29:29:1f:70:57:52:fa:
                    0d:92:5f:84:e5:ea:44:23:3b:82:16:14:27:2f:34:
                    70:0f:1f:e8:68:a5:24:84:22:f4:cd:12:45:f3:93:
                    97:0e:e7:56:75:82:d4:8a:a1:30:17:16:6b:7f:44:
                    dc:9e:9f:57:ab:da:b6:68:9d
                Exponent: 65537 (0x10001)
        X509v3 extensions:
            X509v3 Basic Constraints: 
                CA:FALSE
            Netscape Comment: 
                Easy-RSA Generated Certificate
            X509v3 Subject Key Identifier: 
                77:07:DA:A9:C7:DF:09:81:D0:F3:74:20:59:14:44:2E:D3:32:8A:59
            X509v3 Authority Key Identifier: 
                keyid:0C:D3:7A:79:BA:AC:F9:8B:17:7A:F7:67:89:7F:05:F3:52:4E:56:31
                DirName:/C=CN/ST=Beijing/L=Beijing/O=Sunshine-Library/CN=sunshine-library/emailAddress=bowen@sunshine-library.org
                serial:80:DC:CC:49:96:E1:C5:05

            X509v3 Extended Key Usage: 
                TLS Web Client Authentication
            X509v3 Key Usage: 
                Digital Signature
    Signature Algorithm: sha1WithRSAEncryption
        2e:3c:01:4a:04:1f:61:cc:4c:3b:3e:70:f2:b9:26:a4:42:ec:
        b5:a6:1f:6a:1d:42:d6:65:30:31:2c:f6:08:e0:6b:86:57:1d:
        f3:e7:7b:9f:41:74:96:cd:c0:19:94:00:fd:6d:46:90:e0:b9:
        63:b0:a0:7f:9a:05:b4:3d:ae:89:77:14:30:b2:bf:2c:e1:66:
        46:2e:17:b4:6a:f2:c9:95:23:ff:1a:5c:9d:a8:a0:43:b4:75:
        8b:c9:2b:d9:d0:14:ff:7b:31:0c:d0:f1:40:22:21:92:07:e3:
        0b:e8:71:20:09:9d:2e:b6:07:29:36:55:05:c4:8a:ea:70:c3:
        97:c9
-----BEGIN CERTIFICATE-----
MIID4jCCA0ugAwIBAgIBBTANBgkqhkiG9w0BAQUFADCBkjELMAkGA1UEBhMCQ04x
EDAOBgNVBAgTB0JlaWppbmcxEDAOBgNVBAcTB0JlaWppbmcxGTAXBgNVBAoTEFN1
bnNoaW5lLUxpYnJhcnkxGTAXBgNVBAMTEHN1bnNoaW5lLWxpYnJhcnkxKTAnBgkq
hkiG9w0BCQEWGmJvd2VuQHN1bnNoaW5lLWxpYnJhcnkub3JnMB4XDTEyMTEwNDE5
NDQ1MVoXDTIyMTEwMjE5NDQ1MVowgY0xCzAJBgNVBAYTAkNOMRAwDgYDVQQIEwdC
ZWlqaW5nMRAwDgYDVQQHEwdCZWlqaW5nMRkwFwYDVQQKExBTdW5zaGluZS1MaWJy
YXJ5MRQwEgYDVQQDEwtkZWJpYW4taGp6eDEpMCcGCSqGSIb3DQEJARYaYm93ZW5A
c3Vuc2hpbmUtbGlicmFyeS5vcmcwgZ8wDQYJKoZIhvcNAQEBBQADgY0AMIGJAoGB
AKZs82klAreZnxt+3YF7JSbRCPAE1hgcN8QMfTGZdGtPcVJ15U7fUYK8kT4fbNk5
iPUAWAinpsgKesk3IO0Xt0DKpoopKR9wV1L6DZJfhOXqRCM7ghYUJy80cA8f6Gil
JIQi9M0SRfOTlw7nVnWC1IqhMBcWa39E3J6fV6vatmidAgMBAAGjggFJMIIBRTAJ
BgNVHRMEAjAAMC0GCWCGSAGG+EIBDQQgFh5FYXN5LVJTQSBHZW5lcmF0ZWQgQ2Vy
dGlmaWNhdGUwHQYDVR0OBBYEFHcH2qnH3wmB0PN0IFkURC7TMopZMIHHBgNVHSME
gb8wgbyAFAzTenm6rPmLF3r3Z4l/BfNSTlYxoYGYpIGVMIGSMQswCQYDVQQGEwJD
TjEQMA4GA1UECBMHQmVpamluZzEQMA4GA1UEBxMHQmVpamluZzEZMBcGA1UEChMQ
U3Vuc2hpbmUtTGlicmFyeTEZMBcGA1UEAxMQc3Vuc2hpbmUtbGlicmFyeTEpMCcG
CSqGSIb3DQEJARYaYm93ZW5Ac3Vuc2hpbmUtbGlicmFyeS5vcmeCCQCA3MxJluHF
BTATBgNVHSUEDDAKBggrBgEFBQcDAjALBgNVHQ8EBAMCB4AwDQYJKoZIhvcNAQEF
BQADgYEALjwBSgQfYcxMOz5w8rkmpELstaYfah1C1mUwMSz2COBrhlcd8+d7n0F0
ls3AGZQA/W1GkOC5Y7Cgf5oFtD2uiXcUMLK/LOFmRi4XtGryyZUj/xpcnaigQ7R1
i8kr2dAU/3sxDNDxQCIhkgfjC+hxIAmdLrYHKTZVBcSK6nDDl8k=
-----END CERTIFICATE-----
